target datalayout = "e-m:e-p270:32:32-p271:32:32-p272:64:64-i64:64-i128:128-f80:128-n8:16:32:64-S128"
target triple = "x86_64-unknown-linux-gnu"

%"class.OpenImageIO_v2_6_0::simd::vbool4" = type { %union.anon.1 }
%union.anon.1 = type { <4 x float> }
%"class.OpenImageIO_v2_6_0::simd::vint4" = type { %union.anon.32 }
%union.anon.32 = type { <2 x i64> }

; Function Attrs: mustprogress nounwind uwtable
define linkonce_odr hidden void @_ZN18OpenImageIO_v2_6_04simd6vbool4C2ERKDv4_f(ptr noundef nonnull align 16 dereferenceable(16) %this, ptr noundef nonnull align 16 dereferenceable(16) %m) unnamed_addr #1 comdat align 2 {
entry:
  %this.addr = alloca ptr, align 8
  %m.addr = alloca ptr, align 8
  store ptr %this, ptr %this.addr, align 8
  store ptr %m, ptr %m.addr, align 8
  %this1 = load ptr, ptr %this.addr, align 8
  %0 = getelementptr inbounds %"class.OpenImageIO_v2_6_0::simd::vbool4", ptr %this1, i32 0, i32 0
  %1 = load ptr, ptr %m.addr, align 8
  %2 = load <4 x float>, ptr %1, align 16
  store <4 x float> %2, ptr %0, align 16
  ret void
}

; Function Attrs: mustprogress nounwind uwtable
define linkonce_odr hidden void @_ZN18OpenImageIO_v2_6_04simd5vint4C2ERKDv2_x(ptr noundef nonnull align 16 dereferenceable(16) %this, ptr noundef nonnull align 16 dereferenceable(16) %m) unnamed_addr #1 comdat align 2 {
entry:
  %this.addr = alloca ptr, align 8
  %m.addr = alloca ptr, align 8
  store ptr %this, ptr %this.addr, align 8
  store ptr %m, ptr %m.addr, align 8
  %this1 = load ptr, ptr %this.addr, align 8
  %0 = getelementptr inbounds %"class.OpenImageIO_v2_6_0::simd::vint4", ptr %this1, i32 0, i32 0
  %1 = load ptr, ptr %m.addr, align 8
  %2 = load <2 x i64>, ptr %1, align 16
  store <2 x i64> %2, ptr %0, align 16
  ret void
}

; Function Attrs: mustprogress nounwind uwtable
define linkonce_odr hidden noundef <2 x i64> @_ZNK18OpenImageIO_v2_6_04simd5vint44simdEv(ptr noundef nonnull align 16 dereferenceable(16) %this) #14 comdat align 2 {
entry:
  %this.addr = alloca ptr, align 8
  store ptr %this, ptr %this.addr, align 8
  %this1 = load ptr, ptr %this.addr, align 8
  %0 = getelementptr inbounds %"class.OpenImageIO_v2_6_0::simd::vint4", ptr %this1, i32 0, i32 0
  %1 = load <2 x i64>, ptr %0, align 16
  ret <2 x i64> %1
}

; Function Attrs: mustprogress nounwind uwtable
define linkonce_odr hidden void @_ZN18OpenImageIO_v2_6_04simd5vint4C2ERKS1_(ptr noundef nonnull align 16 dereferenceable(16) %this, ptr noundef nonnull align 16 dereferenceable(16) %other) unnamed_addr #1 comdat align 2 {
entry:
  %this.addr = alloca ptr, align 8
  %other.addr = alloca ptr, align 8
  store ptr %this, ptr %this.addr, align 8
  store ptr %other, ptr %other.addr, align 8
  %this1 = load ptr, ptr %this.addr, align 8
  %0 = load ptr, ptr %other.addr, align 8
  %1 = getelementptr inbounds %"class.OpenImageIO_v2_6_0::simd::vint4", ptr %0, i32 0, i32 0
  %2 = load <2 x i64>, ptr %1, align 16
  %3 = getelementptr inbounds %"class.OpenImageIO_v2_6_0::simd::vint4", ptr %this1, i32 0, i32 0
  store <2 x i64> %2, ptr %3, align 16
  ret void
}

; Function Attrs: mustprogress uwtable
define hidden void @_ZN18OpenImageIO_v2_6_03pvt23wrap_periodic_pow2_simdERNS_4simd5vint4ERKS2_S5_(ptr noalias sret(%"class.OpenImageIO_v2_6_0::simd::vbool4") align 16 %agg.result, ptr noundef nonnull align 16 dereferenceable(16) %coord_, ptr noundef nonnull align 16 dereferenceable(16) %origin, ptr noundef nonnull align 16 dereferenceable(16) %width) #6 {
entry:
  %__a.addr.i60 = alloca <2 x i64>, align 16
  %__b.addr.i61 = alloca <2 x i64>, align 16
  %.compoundliteral.i59 = alloca <2 x i64>, align 16
  %__i3.addr.i = alloca i32, align 4
  %__i2.addr.i = alloca i32, align 4
  %__i1.addr.i = alloca i32, align 4
  %__i0.addr.i = alloca i32, align 4
  %.compoundliteral.i = alloca <4 x i32>, align 16
  %__i.addr.i = alloca i32, align 4
  %this.addr.i54 = alloca ptr, align 8
  %a.addr.i55 = alloca i32, align 4
  %__a.addr.i51 = alloca <2 x i64>, align 16
  %__b.addr.i52 = alloca <2 x i64>, align 16
  %__a.addr.i49 = alloca <2 x i64>, align 16
  %__b.addr.i50 = alloca <2 x i64>, align 16
  %__a.addr.i47 = alloca <2 x i64>, align 16
  %__b.addr.i48 = alloca <2 x i64>, align 16
  %__a.addr.i46 = alloca <2 x i64>, align 16
  %__b.addr.i = alloca <2 x i64>, align 16
  %__a.addr.i = alloca <2 x i64>, align 16
  %result.ptr.i39 = alloca ptr, align 8
  %a.addr.i40 = alloca ptr, align 8
  %b.addr.i41 = alloca ptr, align 8
  %ref.tmp.i42 = alloca <2 x i64>, align 16
  %result.ptr.i34 = alloca ptr, align 8
  %anyval.i = alloca <2 x i64>, align 16
  %ref.tmp.i35 = alloca <4 x float>, align 16
  %this.addr.i31 = alloca ptr, align 8
  %a.addr.i32 = alloca i32, align 4
  %result.ptr.i24 = alloca ptr, align 8
  %a.addr.i25 = alloca ptr, align 8
  %b.addr.i26 = alloca ptr, align 8
  %ref.tmp.i27 = alloca <2 x i64>, align 16
  %result.ptr.i17 = alloca ptr, align 8
  %a.addr.i18 = alloca ptr, align 8
  %b.addr.i19 = alloca ptr, align 8
  %ref.tmp.i20 = alloca <2 x i64>, align 16
  %this.addr.i14 = alloca ptr, align 8
  %other.addr.i15 = alloca ptr, align 8
  %this.addr.i11 = alloca ptr, align 8
  %other.addr.i12 = alloca ptr, align 8
  %this.addr.i8 = alloca ptr, align 8
  %other.addr.i9 = alloca ptr, align 8
  %this.addr.i = alloca ptr, align 8
  %other.addr.i = alloca ptr, align 8
  %result.ptr.i = alloca ptr, align 8
  %a.addr.i = alloca ptr, align 8
  %b.addr.i = alloca ptr, align 8
  %ref.tmp.i = alloca <2 x i64>, align 16
  %result.ptr = alloca ptr, align 8
  %coord_.addr = alloca ptr, align 8
  %origin.addr = alloca ptr, align 8
  %width.addr = alloca ptr, align 8
  %coord = alloca %"class.OpenImageIO_v2_6_0::simd::vint4", align 16
  %ref.tmp = alloca %"class.OpenImageIO_v2_6_0::simd::vint4", align 16
  %ref.tmp1 = alloca %"class.OpenImageIO_v2_6_0::simd::vint4", align 16
  %ref.tmp2 = alloca %"class.OpenImageIO_v2_6_0::simd::vint4", align 16
  %ref.tmp3 = alloca %"class.OpenImageIO_v2_6_0::simd::vint4", align 16
  %ref.tmp5 = alloca %"class.OpenImageIO_v2_6_0::simd::vint4", align 16
  store ptr %agg.result, ptr %result.ptr, align 8
  store ptr %coord_, ptr %coord_.addr, align 8
  store ptr %origin, ptr %origin.addr, align 8
  store ptr %width, ptr %width.addr, align 8
  %0 = load ptr, ptr %coord_.addr, align 8
  call void @_ZN18OpenImageIO_v2_6_04simd5vint4C2ERKS1_(ptr noundef nonnull align 16 dereferenceable(16) %coord, ptr noundef nonnull align 16 dereferenceable(16) %0)
  %1 = load ptr, ptr %origin.addr, align 8
  call void @llvm.experimental.noalias.scope.decl(metadata !81)
  store ptr %ref.tmp, ptr %result.ptr.i24, align 8, !noalias !81
  store ptr %coord, ptr %a.addr.i25, align 8, !noalias !81
  store ptr %1, ptr %b.addr.i26, align 8, !noalias !81
  %2 = load ptr, ptr %a.addr.i25, align 8, !noalias !81
  %call.i28 = call noundef <2 x i64> @_ZNK18OpenImageIO_v2_6_04simd5vint44simdEv(ptr noundef nonnull align 16 dereferenceable(16) %2)
  %3 = load ptr, ptr %b.addr.i26, align 8, !noalias !81
  %call1.i29 = call noundef <2 x i64> @_ZNK18OpenImageIO_v2_6_04simd5vint44simdEv(ptr noundef nonnull align 16 dereferenceable(16) %3)
  store <2 x i64> %call.i28, ptr %__a.addr.i49, align 16
  store <2 x i64> %call1.i29, ptr %__b.addr.i50, align 16
  %4 = load <2 x i64>, ptr %__a.addr.i49, align 16
  %5 = bitcast <2 x i64> %4 to <4 x i32>
  %6 = load <2 x i64>, ptr %__b.addr.i50, align 16
  %7 = bitcast <2 x i64> %6 to <4 x i32>
  %sub.i = sub <4 x i32> %5, %7
  %8 = bitcast <4 x i32> %sub.i to <2 x i64>
  store <2 x i64> %8, ptr %ref.tmp.i27, align 16, !noalias !81
  call void @_ZN18OpenImageIO_v2_6_04simd5vint4C2ERKDv2_x(ptr noundef nonnull align 16 dereferenceable(16) %ref.tmp, ptr noundef nonnull align 16 dereferenceable(16) %ref.tmp.i27)
  store ptr %coord, ptr %this.addr.i14, align 8
  store ptr %ref.tmp, ptr %other.addr.i15, align 8
  %this1.i16 = load ptr, ptr %this.addr.i14, align 8
  %9 = load ptr, ptr %other.addr.i15, align 8
  %10 = load <2 x i64>, ptr %9, align 16
  store <2 x i64> %10, ptr %this1.i16, align 16
  %11 = load ptr, ptr %width.addr, align 8
  store ptr %ref.tmp3, ptr %this.addr.i31, align 8
  store i32 1, ptr %a.addr.i32, align 4
  %this1.i33 = load ptr, ptr %this.addr.i31, align 8
  %12 = load i32, ptr %a.addr.i32, align 4
  store ptr %this1.i33, ptr %this.addr.i54, align 8
  store i32 %12, ptr %a.addr.i55, align 4
  %this1.i56 = load ptr, ptr %this.addr.i54, align 8
  %13 = load i32, ptr %a.addr.i55, align 4
  store i32 %13, ptr %__i.addr.i, align 4
  %14 = load i32, ptr %__i.addr.i, align 4
  %15 = load i32, ptr %__i.addr.i, align 4
  %16 = load i32, ptr %__i.addr.i, align 4
  %17 = load i32, ptr %__i.addr.i, align 4
  store i32 %14, ptr %__i3.addr.i, align 4
  store i32 %15, ptr %__i2.addr.i, align 4
  store i32 %16, ptr %__i1.addr.i, align 4
  store i32 %17, ptr %__i0.addr.i, align 4
  %18 = load i32, ptr %__i0.addr.i, align 4
  %vecinit.i = insertelement <4 x i32> undef, i32 %18, i32 0
  %19 = load i32, ptr %__i1.addr.i, align 4
  %vecinit1.i = insertelement <4 x i32> %vecinit.i, i32 %19, i32 1
  %20 = load i32, ptr %__i2.addr.i, align 4
  %vecinit2.i = insertelement <4 x i32> %vecinit1.i, i32 %20, i32 2
  %21 = load i32, ptr %__i3.addr.i, align 4
  %vecinit3.i = insertelement <4 x i32> %vecinit2.i, i32 %21, i32 3
  store <4 x i32> %vecinit3.i, ptr %.compoundliteral.i, align 16
  %22 = load <4 x i32>, ptr %.compoundliteral.i, align 16
  %23 = bitcast <4 x i32> %22 to <2 x i64>
  store <2 x i64> %23, ptr %this1.i56, align 16
  call void @llvm.experimental.noalias.scope.decl(metadata !84)
  store ptr %ref.tmp2, ptr %result.ptr.i17, align 8, !noalias !84
  store ptr %11, ptr %a.addr.i18, align 8, !noalias !84
  store ptr %ref.tmp3, ptr %b.addr.i19, align 8, !noalias !84
  %24 = load ptr, ptr %a.addr.i18, align 8, !noalias !84
  %call.i21 = call noundef <2 x i64> @_ZNK18OpenImageIO_v2_6_04simd5vint44simdEv(ptr noundef nonnull align 16 dereferenceable(16) %24)
  %25 = load ptr, ptr %b.addr.i19, align 8, !noalias !84
  %call1.i22 = call noundef <2 x i64> @_ZNK18OpenImageIO_v2_6_04simd5vint44simdEv(ptr noundef nonnull align 16 dereferenceable(16) %25)
  store <2 x i64> %call.i21, ptr %__a.addr.i51, align 16
  store <2 x i64> %call1.i22, ptr %__b.addr.i52, align 16
  %26 = load <2 x i64>, ptr %__a.addr.i51, align 16
  %27 = bitcast <2 x i64> %26 to <4 x i32>
  %28 = load <2 x i64>, ptr %__b.addr.i52, align 16
  %29 = bitcast <2 x i64> %28 to <4 x i32>
  %sub.i53 = sub <4 x i32> %27, %29
  %30 = bitcast <4 x i32> %sub.i53 to <2 x i64>
  store <2 x i64> %30, ptr %ref.tmp.i20, align 16, !noalias !84
  call void @_ZN18OpenImageIO_v2_6_04simd5vint4C2ERKDv2_x(ptr noundef nonnull align 16 dereferenceable(16) %ref.tmp2, ptr noundef nonnull align 16 dereferenceable(16) %ref.tmp.i20)
  call void @llvm.experimental.noalias.scope.decl(metadata !87)
  store ptr %ref.tmp1, ptr %result.ptr.i39, align 8, !noalias !87
  store ptr %coord, ptr %a.addr.i40, align 8, !noalias !87
  store ptr %ref.tmp2, ptr %b.addr.i41, align 8, !noalias !87
  %31 = load ptr, ptr %a.addr.i40, align 8, !noalias !87
  %call.i43 = call noundef <2 x i64> @_ZNK18OpenImageIO_v2_6_04simd5vint44simdEv(ptr noundef nonnull align 16 dereferenceable(16) %31)
  %32 = load ptr, ptr %b.addr.i41, align 8, !noalias !87
  %call1.i44 = call noundef <2 x i64> @_ZNK18OpenImageIO_v2_6_04simd5vint44simdEv(ptr noundef nonnull align 16 dereferenceable(16) %32)
  store <2 x i64> %call.i43, ptr %__a.addr.i47, align 16
  store <2 x i64> %call1.i44, ptr %__b.addr.i48, align 16
  %33 = load <2 x i64>, ptr %__a.addr.i47, align 16
  %34 = load <2 x i64>, ptr %__b.addr.i48, align 16
  %and.i = and <2 x i64> %33, %34
  store <2 x i64> %and.i, ptr %ref.tmp.i42, align 16, !noalias !87
  call void @_ZN18OpenImageIO_v2_6_04simd5vint4C2ERKDv2_x(ptr noundef nonnull align 16 dereferenceable(16) %ref.tmp1, ptr noundef nonnull align 16 dereferenceable(16) %ref.tmp.i42)
  store ptr %coord, ptr %this.addr.i11, align 8
  store ptr %ref.tmp1, ptr %other.addr.i12, align 8
  %this1.i13 = load ptr, ptr %this.addr.i11, align 8
  %35 = load ptr, ptr %other.addr.i12, align 8
  %36 = load <2 x i64>, ptr %35, align 16
  store <2 x i64> %36, ptr %this1.i13, align 16
  %37 = load ptr, ptr %origin.addr, align 8
  call void @llvm.experimental.noalias.scope.decl(metadata !90)
  store ptr %ref.tmp5, ptr %result.ptr.i, align 8, !noalias !90
  store ptr %coord, ptr %a.addr.i, align 8, !noalias !90
  store ptr %37, ptr %b.addr.i, align 8, !noalias !90
  %38 = load ptr, ptr %a.addr.i, align 8, !noalias !90
  %call.i = call noundef <2 x i64> @_ZNK18OpenImageIO_v2_6_04simd5vint44simdEv(ptr noundef nonnull align 16 dereferenceable(16) %38)
  %39 = load ptr, ptr %b.addr.i, align 8, !noalias !90
  %call1.i = call noundef <2 x i64> @_ZNK18OpenImageIO_v2_6_04simd5vint44simdEv(ptr noundef nonnull align 16 dereferenceable(16) %39)
  store <2 x i64> %call.i, ptr %__a.addr.i46, align 16
  store <2 x i64> %call1.i, ptr %__b.addr.i, align 16
  %40 = load <2 x i64>, ptr %__a.addr.i46, align 16
  %41 = bitcast <2 x i64> %40 to <4 x i32>
  %42 = load <2 x i64>, ptr %__b.addr.i, align 16
  %43 = bitcast <2 x i64> %42 to <4 x i32>
  %add.i = add <4 x i32> %41, %43
  %44 = bitcast <4 x i32> %add.i to <2 x i64>
  store <2 x i64> %44, ptr %ref.tmp.i, align 16, !noalias !90
  call void @_ZN18OpenImageIO_v2_6_04simd5vint4C2ERKDv2_x(ptr noundef nonnull align 16 dereferenceable(16) %ref.tmp5, ptr noundef nonnull align 16 dereferenceable(16) %ref.tmp.i)
  store ptr %coord, ptr %this.addr.i8, align 8
  store ptr %ref.tmp5, ptr %other.addr.i9, align 8
  %this1.i10 = load ptr, ptr %this.addr.i8, align 8
  %45 = load ptr, ptr %other.addr.i9, align 8
  %46 = load <2 x i64>, ptr %45, align 16
  store <2 x i64> %46, ptr %this1.i10, align 16
  %47 = load ptr, ptr %coord_.addr, align 8
  store ptr %47, ptr %this.addr.i, align 8
  store ptr %coord, ptr %other.addr.i, align 8
  %this1.i = load ptr, ptr %this.addr.i, align 8
  %48 = load ptr, ptr %other.addr.i, align 8
  %49 = load <2 x i64>, ptr %48, align 16
  store <2 x i64> %49, ptr %this1.i, align 16
  call void @llvm.experimental.noalias.scope.decl(metadata !93)
  store ptr %agg.result, ptr %result.ptr.i34, align 8, !noalias !93
  store <2 x i64> zeroinitializer, ptr %.compoundliteral.i59, align 16
  %50 = load <2 x i64>, ptr %.compoundliteral.i59, align 16
  store <2 x i64> %50, ptr %anyval.i, align 16, !noalias !93
  %51 = load <2 x i64>, ptr %anyval.i, align 16, !noalias !93
  %52 = load <2 x i64>, ptr %anyval.i, align 16, !noalias !93
  store <2 x i64> %51, ptr %__a.addr.i60, align 16
  store <2 x i64> %52, ptr %__b.addr.i61, align 16
  %53 = load <2 x i64>, ptr %__a.addr.i60, align 16
  %54 = bitcast <2 x i64> %53 to <16 x i8>
  %55 = load <2 x i64>, ptr %__b.addr.i61, align 16
  %56 = bitcast <2 x i64> %55 to <16 x i8>
  %cmp.i = icmp eq <16 x i8> %54, %56
  %sext.i = sext <16 x i1> %cmp.i to <16 x i8>
  %57 = bitcast <16 x i8> %sext.i to <2 x i64>
  store <2 x i64> %57, ptr %__a.addr.i, align 16
  %58 = load <2 x i64>, ptr %__a.addr.i, align 16
  %59 = bitcast <2 x i64> %58 to <4 x float>
  store <4 x float> %59, ptr %ref.tmp.i35, align 16, !noalias !93
  call void @_ZN18OpenImageIO_v2_6_04simd6vbool4C2ERKDv4_f(ptr noundef nonnull align 16 dereferenceable(16) %agg.result, ptr noundef nonnull align 16 dereferenceable(16) %ref.tmp.i35)
  ret void
}