; Function Attrs: mustprogress nofree norecurse nosync nounwind willreturn memory(argmem: readwrite) uwtable
define hidden void @_ZN18OpenImageIO_v2_6_03pvt23wrap_periodic_pow2_simdERNS_4simd5vint4ERKS2_S5_(ptr noalias nocapture writeonly sret(%"class.OpenImageIO_v2_6_0::simd::vbool4") align 16 %agg.result, ptr nocapture noundef nonnull align 16 dereferenceable(16) %coord_, ptr nocapture noundef nonnull readonly align 16 dereferenceable(16) %origin, ptr nocapture noundef nonnull readonly align 16 dereferenceable(16) %width) #8 {
entry:
  %0 = load <4 x i32>, ptr %coord_, align 16
  %1 = load <4 x i32>, ptr %origin, align 16
  %sub.i = sub <4 x i32> %0, %1
  %2 = load <4 x i32>, ptr %width, align 16
  %sub.i53 = add <4 x i32> %2, <i32 -1, i32 -1, i32 -1, i32 -1>
  %and.i12 = and <4 x i32> %sub.i53, %sub.i
  %add.i = add <4 x i32> %and.i12, %1
  store <4 x i32> %add.i, ptr %coord_, align 16
  store <4 x float> <float 0xFFFFFFFFE0000000, float 0xFFFFFFFFE0000000, float 0xFFFFFFFFE0000000, float 0xFFFFFFFFE0000000>, ptr %agg.result, align 16
  ret void
}